target datalayout = "e-m:e-p270:32:32-p271:32:32-p272:64:64-i64:64-i128:128-f80:128-n8:16:32:64-S128"
target triple = "x86_64-pc-linux-gnu"

%"class.pxrInternal_v0_24__pxrReserved__::UsdAPISchemaBase" = type { %"class.pxrInternal_v0_24__pxrReserved__::UsdSchemaBase", %"class.pxrInternal_v0_24__pxrReserved__::TfToken" }
%"class.pxrInternal_v0_24__pxrReserved__::UsdSchemaBase" = type { ptr, %"class.pxrInternal_v0_24__pxrReserved__::Usd_PrimDataHandle", %"class.pxrInternal_v0_24__pxrReserved__::SdfPath" }
%"class.pxrInternal_v0_24__pxrReserved__::Usd_PrimDataHandle" = type { %"class.pxrInternal_v0_24__pxrReserved__::TfDelegatedCountPtr" }
%"class.pxrInternal_v0_24__pxrReserved__::TfDelegatedCountPtr" = type { ptr }
%"class.pxrInternal_v0_24__pxrReserved__::SdfPath" = type { %"struct.pxrInternal_v0_24__pxrReserved__::Sdf_PathNodeHandleImpl", %"struct.pxrInternal_v0_24__pxrReserved__::Sdf_PathNodeHandleImpl.0" }
%"struct.pxrInternal_v0_24__pxrReserved__::Sdf_PathNodeHandleImpl" = type { %"struct.pxrInternal_v0_24__pxrReserved__::Sdf_Pool<pxrInternal_v0_24__pxrReserved__::Sdf_PathPrimTag, 24, 8>::Handle" }
%"struct.pxrInternal_v0_24__pxrReserved__::Sdf_Pool<pxrInternal_v0_24__pxrReserved__::Sdf_PathPrimTag, 24, 8>::Handle" = type { i32 }
%"struct.pxrInternal_v0_24__pxrReserved__::Sdf_PathNodeHandleImpl.0" = type { %"struct.pxrInternal_v0_24__pxrReserved__::Sdf_Pool<pxrInternal_v0_24__pxrReserved__::Sdf_PathPropTag, 24, 8>::Handle" }
%"struct.pxrInternal_v0_24__pxrReserved__::Sdf_Pool<pxrInternal_v0_24__pxrReserved__::Sdf_PathPropTag, 24, 8>::Handle" = type { i32 }
%"class.pxrInternal_v0_24__pxrReserved__::TfToken" = type { %"class.pxrInternal_v0_24__pxrReserved__::TfPointerAndBits" }
%"class.pxrInternal_v0_24__pxrReserved__::TfPointerAndBits" = type { ptr }
%"class.pxrInternal_v0_24__pxrReserved__::UsdPrim" = type { %"class.pxrInternal_v0_24__pxrReserved__::UsdObject" }
%"class.pxrInternal_v0_24__pxrReserved__::UsdObject" = type { i32, %"class.pxrInternal_v0_24__pxrReserved__::Usd_PrimDataHandle", %"class.pxrInternal_v0_24__pxrReserved__::SdfPath", %"class.pxrInternal_v0_24__pxrReserved__::TfToken" }

; Function Attrs: mustprogress nounwind uwtable
define linkonce_odr noundef i64 @_ZNK32pxrInternal_v0_24__pxrReserved__16TfPointerAndBitsIKNS_7TfToken4_RepEE6_AsIntEPS3_(ptr noundef nonnull align 8 dereferenceable(8) %0, ptr noundef %1) #2 comdat align 2 {
  %3 = alloca ptr, align 8
  %4 = alloca ptr, align 8
  store ptr %0, ptr %3, align 8
  store ptr %1, ptr %4, align 8
  %5 = load ptr, ptr %4, align 8
  %6 = ptrtoint ptr %5 to i64
  ret i64 %6
}

; Function Attrs: mustprogress uwtable
define linkonce_odr void @_ZN32pxrInternal_v0_24__pxrReserved__7UsdPrimC2ERKNS_18Usd_PrimDataHandleERKNS_7SdfPathE(ptr noundef nonnull align 8 dereferenceable(32) %0, ptr noundef nonnull align 8 dereferenceable(8) %1, ptr noundef nonnull align 4 dereferenceable(8) %2) unnamed_addr #0 comdat align 2 {
  %4 = alloca ptr, align 8
  %5 = alloca ptr, align 8
  %6 = alloca ptr, align 8
  store ptr %0, ptr %4, align 8
  store ptr %1, ptr %5, align 8
  store ptr %2, ptr %6, align 8
  %7 = load ptr, ptr %4, align 8
  %8 = load ptr, ptr %5, align 8
  %9 = load ptr, ptr %6, align 8
  call void @_ZN32pxrInternal_v0_24__pxrReserved__9UsdObjectC2ERKNS_18Usd_PrimDataHandleERKNS_7SdfPathE(ptr noundef nonnull align 8 dereferenceable(32) %7, ptr noundef nonnull align 8 dereferenceable(8) %8, ptr noundef nonnull align 4 dereferenceable(8) %9)
  ret void
}

; Function Attrs: mustprogress nounwind uwtable
define linkonce_odr noundef i64 @_ZNK32pxrInternal_v0_24__pxrReserved__16TfPointerAndBitsIKNS_7TfToken4_RepEE10GetLiteralEv(ptr noundef nonnull align 8 dereferenceable(8) %0) #2 comdat align 2 {
  %2 = alloca ptr, align 8
  store ptr %0, ptr %2, align 8
  %3 = load ptr, ptr %2, align 8
  %4 = getelementptr inbounds nuw %"class.pxrInternal_v0_24__pxrReserved__::TfPointerAndBits", ptr %3, i32 0, i32 0
  %5 = load ptr, ptr %4, align 8
  %6 = call noundef i64 @_ZNK32pxrInternal_v0_24__pxrReserved__16TfPointerAndBitsIKNS_7TfToken4_RepEE6_AsIntEPS3_(ptr noundef nonnull align 8 dereferenceable(8) %3, ptr noundef %5) #5
  ret i64 %6
}

; Function Attrs: mustprogress uwtable
define linkonce_odr noundef i32 @_ZNK32pxrInternal_v0_24__pxrReserved__13UsdSchemaBase13GetSchemaKindEv(ptr noundef nonnull align 8 dereferenceable(24) %0) #0 comdat align 2 {
  %2 = alloca ptr, align 8
  store ptr %0, ptr %2, align 8
  %3 = load ptr, ptr %2, align 8
  %4 = load ptr, ptr %3, align 8
  %5 = getelementptr inbounds ptr, ptr %4, i64 2
  %6 = load ptr, ptr %5, align 8
  %7 = call noundef i32 %6(ptr noundef nonnull align 8 dereferenceable(24) %3)
  ret i32 %7
}

; Function Attrs: mustprogress uwtable
define linkonce_odr void @_ZNK32pxrInternal_v0_24__pxrReserved__13UsdSchemaBase7GetPrimEv(ptr dead_on_unwind noalias writable sret(%"class.pxrInternal_v0_24__pxrReserved__::UsdPrim") align 8 %0, ptr noundef nonnull align 8 dereferenceable(24) %1) #0 comdat align 2 {
  %3 = alloca ptr, align 8
  %4 = alloca ptr, align 8
  store ptr %0, ptr %3, align 8
  store ptr %1, ptr %4, align 8
  %5 = load ptr, ptr %4, align 8
  %6 = getelementptr inbounds nuw %"class.pxrInternal_v0_24__pxrReserved__::UsdSchemaBase", ptr %5, i32 0, i32 1
  %7 = getelementptr inbounds nuw %"class.pxrInternal_v0_24__pxrReserved__::UsdSchemaBase", ptr %5, i32 0, i32 2
  call void @_ZN32pxrInternal_v0_24__pxrReserved__7UsdPrimC2ERKNS_18Usd_PrimDataHandleERKNS_7SdfPathE(ptr noundef nonnull align 8 dereferenceable(32) %0, ptr noundef nonnull align 8 dereferenceable(8) %6, ptr noundef nonnull align 4 dereferenceable(8) %7)
  ret void
}

; Function Attrs: mustprogress nounwind uwtable
define linkonce_odr noundef zeroext i1 @_ZNK32pxrInternal_v0_24__pxrReserved__7TfToken7IsEmptyEv(ptr noundef nonnull align 8 dereferenceable(8) %0) #2 comdat align 2 {
  %2 = alloca ptr, align 8
  store ptr %0, ptr %2, align 8
  %3 = load ptr, ptr %2, align 8
  %4 = getelementptr inbounds nuw %"class.pxrInternal_v0_24__pxrReserved__::TfToken", ptr %3, i32 0, i32 0
  %5 = call noundef i64 @_ZNK32pxrInternal_v0_24__pxrReserved__16TfPointerAndBitsIKNS_7TfToken4_RepEE10GetLiteralEv(ptr noundef nonnull align 8 dereferenceable(8) %4) #5
  %6 = icmp eq i64 %5, 0
  ret i1 %6
}

; Function Attrs: mustprogress uwtable
define linkonce_odr noundef zeroext i1 @_ZNK32pxrInternal_v0_24__pxrReserved__13UsdSchemaBase24IsMultipleApplyAPISchemaEv(ptr noundef nonnull align 8 dereferenceable(24) %0) #0 comdat align 2 {
  %2 = alloca ptr, align 8
  store ptr %0, ptr %2, align 8
  %3 = load ptr, ptr %2, align 8
  %4 = call noundef i32 @_ZNK32pxrInternal_v0_24__pxrReserved__13UsdSchemaBase13GetSchemaKindEv(ptr noundef nonnull align 8 dereferenceable(24) %3)
  %5 = icmp eq i32 %4, 6
  ret i1 %5
}

; Function Attrs: mustprogress uwtable
define linkonce_odr noundef zeroext i1 @_ZNK32pxrInternal_v0_24__pxrReserved__13UsdSchemaBase18IsAppliedAPISchemaEv(ptr noundef nonnull align 8 dereferenceable(24) %0) #0 comdat align 2 {
  %2 = alloca ptr, align 8
  store ptr %0, ptr %2, align 8
  %3 = load ptr, ptr %2, align 8
  %4 = call noundef i32 @_ZNK32pxrInternal_v0_24__pxrReserved__13UsdSchemaBase13GetSchemaKindEv(ptr noundef nonnull align 8 dereferenceable(24) %3)
  %5 = icmp eq i32 %4, 5
  br i1 %5, label %9, label %6

6:                                                ; preds = %1
  %7 = call noundef i32 @_ZNK32pxrInternal_v0_24__pxrReserved__13UsdSchemaBase13GetSchemaKindEv(ptr noundef nonnull align 8 dereferenceable(24) %3)
  %8 = icmp eq i32 %7, 6
  br label %9

9:                                                ; preds = %6, %1
  %10 = phi i1 [ true, %1 ], [ %8, %6 ]
  ret i1 %10
}

; Function Attrs: mustprogress uwtable
define noundef zeroext i1 @_ZNK32pxrInternal_v0_24__pxrReserved__16UsdAPISchemaBase13_IsCompatibleEv(ptr noundef nonnull align 8 dereferenceable(32) %0) unnamed_addr #0 align 2 personality ptr @__gxx_personality_v0 {
  %2 = alloca i1, align 1
  %3 = alloca ptr, align 8
  %4 = alloca %"class.pxrInternal_v0_24__pxrReserved__::UsdPrim", align 8
  %5 = alloca i1, align 1
  %6 = alloca ptr, align 8
  %7 = alloca i32, align 4
  %8 = alloca %"class.pxrInternal_v0_24__pxrReserved__::UsdPrim", align 8
  store ptr %0, ptr %3, align 8
  %9 = load ptr, ptr %3, align 8
  %10 = call noundef zeroext i1 @_ZNK32pxrInternal_v0_24__pxrReserved__13UsdSchemaBase13_IsCompatibleEv(ptr noundef nonnull align 8 dereferenceable(24) %9)
  br i1 %10, label %12, label %11

11:                                               ; preds = %1
  store i1 false, ptr %2, align 1
  br label %60

12:                                               ; preds = %1
  %13 = call noundef zeroext i1 @_ZNK32pxrInternal_v0_24__pxrReserved__13UsdSchemaBase18IsAppliedAPISchemaEv(ptr noundef nonnull align 8 dereferenceable(24) %9)
  br i1 %13, label %14, label %59

14:                                               ; preds = %12
  %15 = call noundef zeroext i1 @_ZNK32pxrInternal_v0_24__pxrReserved__13UsdSchemaBase24IsMultipleApplyAPISchemaEv(ptr noundef nonnull align 8 dereferenceable(24) %9)
  br i1 %15, label %16, label %43

16:                                               ; preds = %14
  %17 = getelementptr inbounds nuw %"class.pxrInternal_v0_24__pxrReserved__::UsdAPISchemaBase", ptr %9, i32 0, i32 1
  %18 = call noundef zeroext i1 @_ZNK32pxrInternal_v0_24__pxrReserved__7TfToken7IsEmptyEv(ptr noundef nonnull align 8 dereferenceable(8) %17)
  store i1 false, ptr %5, align 1
  br i1 %18, label %29, label %19

19:                                               ; preds = %16
  call void @_ZNK32pxrInternal_v0_24__pxrReserved__13UsdSchemaBase7GetPrimEv(ptr dead_on_unwind writable sret(%"class.pxrInternal_v0_24__pxrReserved__::UsdPrim") align 8 %4, ptr noundef nonnull align 8 dereferenceable(24) %9)
  store i1 true, ptr %5, align 1
  %20 = load ptr, ptr %9, align 8
  %21 = getelementptr inbounds ptr, ptr %20, i64 5
  %22 = load ptr, ptr %21, align 8
  %23 = invoke noundef nonnull align 8 dereferenceable(8) ptr %22(ptr noundef nonnull align 8 dereferenceable(32) %9)
          to label %24 unwind label %35

24:                                               ; preds = %19
  %25 = getelementptr inbounds nuw %"class.pxrInternal_v0_24__pxrReserved__::UsdAPISchemaBase", ptr %9, i32 0, i32 1
  %26 = invoke noundef zeroext i1 @_ZNK32pxrInternal_v0_24__pxrReserved__7UsdPrim6HasAPIERKNS_6TfTypeERKNS_7TfTokenE(ptr noundef nonnull align 8 dereferenceable(32) %4, ptr noundef nonnull align 8 dereferenceable(8) %23, ptr noundef nonnull align 8 dereferenceable(8) %25)
          to label %27 unwind label %35

27:                                               ; preds = %24
  %28 = xor i1 %26, true
  br label %29

29:                                               ; preds = %27, %16
  %30 = phi i1 [ true, %16 ], [ %28, %27 ]
  %31 = load i1, ptr %5, align 1
  br i1 %31, label %32, label %33

32:                                               ; preds = %29
  call void @_ZN32pxrInternal_v0_24__pxrReserved__7UsdPrimD2Ev(ptr noundef nonnull align 8 dereferenceable(32) %4) #5
  br label %33

33:                                               ; preds = %32, %29
  br i1 %30, label %34, label %42

34:                                               ; preds = %33
  store i1 false, ptr %2, align 1
  br label %60

35:                                               ; preds = %24, %19
  %36 = landingpad { ptr, i32 }
          cleanup
  %37 = extractvalue { ptr, i32 } %36, 0
  store ptr %37, ptr %6, align 8
  %38 = extractvalue { ptr, i32 } %36, 1
  store i32 %38, ptr %7, align 4
  %39 = load i1, ptr %5, align 1
  br i1 %39, label %40, label %41

40:                                               ; preds = %35
  call void @_ZN32pxrInternal_v0_24__pxrReserved__7UsdPrimD2Ev(ptr noundef nonnull align 8 dereferenceable(32) %4) #5
  br label %41

41:                                               ; preds = %40, %35
  br label %62

42:                                               ; preds = %33
  br label %58

43:                                               ; preds = %14
  call void @_ZNK32pxrInternal_v0_24__pxrReserved__13UsdSchemaBase7GetPrimEv(ptr dead_on_unwind writable sret(%"class.pxrInternal_v0_24__pxrReserved__::UsdPrim") align 8 %8, ptr noundef nonnull align 8 dereferenceable(24) %9)
  %44 = load ptr, ptr %9, align 8
  %45 = getelementptr inbounds ptr, ptr %44, i64 5
  %46 = load ptr, ptr %45, align 8
  %47 = invoke noundef nonnull align 8 dereferenceable(8) ptr %46(ptr noundef nonnull align 8 dereferenceable(32) %9)
          to label %48 unwind label %53

48:                                               ; preds = %43
  %49 = invoke noundef zeroext i1 @_ZNK32pxrInternal_v0_24__pxrReserved__7UsdPrim6HasAPIERKNS_6TfTypeE(ptr noundef nonnull align 8 dereferenceable(32) %8, ptr noundef nonnull align 8 dereferenceable(8) %47)
          to label %50 unwind label %53

50:                                               ; preds = %48
  %51 = xor i1 %49, true
  call void @_ZN32pxrInternal_v0_24__pxrReserved__7UsdPrimD2Ev(ptr noundef nonnull align 8 dereferenceable(32) %8) #5
  br i1 %51, label %52, label %57

52:                                               ; preds = %50
  store i1 false, ptr %2, align 1
  br label %60

53:                                               ; preds = %48, %43
  %54 = landingpad { ptr, i32 }
          cleanup
  %55 = extractvalue { ptr, i32 } %54, 0
  store ptr %55, ptr %6, align 8
  %56 = extractvalue { ptr, i32 } %54, 1
  store i32 %56, ptr %7, align 4
  call void @_ZN32pxrInternal_v0_24__pxrReserved__7UsdPrimD2Ev(ptr noundef nonnull align 8 dereferenceable(32) %8) #5
  br label %62

57:                                               ; preds = %50
  br label %58

58:                                               ; preds = %57, %42
  br label %59

59:                                               ; preds = %58, %12
  store i1 true, ptr %2, align 1
  br label %60

60:                                               ; preds = %59, %52, %34, %11
  %61 = load i1, ptr %2, align 1
  ret i1 %61

62:                                               ; preds = %53, %41
  %63 = load ptr, ptr %6, align 8
  %64 = load i32, ptr %7, align 4
  %65 = insertvalue { ptr, i32 } poison, ptr %63, 0
  %66 = insertvalue { ptr, i32 } %65, i32 %64, 1
  resume { ptr, i32 } %66
}