; Function Attrs: mustprogress uwtable
define noundef zeroext i1 @_ZNK32pxrInternal_v0_24__pxrReserved__16UsdAPISchemaBase13_IsCompatibleEv(ptr noundef nonnull align 8 dereferenceable(32) %0) unnamed_addr #0 align 2 personality ptr @__gxx_personality_v0 {
  %2 = alloca %"class.pxrInternal_v0_24__pxrReserved__::UsdPrim", align 8
  %3 = alloca %"class.pxrInternal_v0_24__pxrReserved__::UsdPrim", align 8
  %4 = tail call noundef zeroext i1 @_ZNK32pxrInternal_v0_24__pxrReserved__13UsdSchemaBase13_IsCompatibleEv(ptr noundef nonnull align 8 dereferenceable(24) %0)
  br i1 %4, label %5, label %_ZN32pxrInternal_v0_24__pxrReserved__7UsdPrimD2Ev.exit.thread

5:                                                ; preds = %1
  %6 = load ptr, ptr %0, align 8
  %7 = getelementptr inbounds nuw i8, ptr %6, i64 16
  %8 = load ptr, ptr %7, align 8
  %9 = tail call noundef i32 %8(ptr noundef nonnull align 8 dereferenceable(24) %0)
  %10 = icmp eq i32 %9, 5
  br i1 %10, label %_ZNK32pxrInternal_v0_24__pxrReserved__13UsdSchemaBase18IsAppliedAPISchemaEv.exit.thread, label %_ZNK32pxrInternal_v0_24__pxrReserved__13UsdSchemaBase18IsAppliedAPISchemaEv.exit

_ZNK32pxrInternal_v0_24__pxrReserved__13UsdSchemaBase18IsAppliedAPISchemaEv.exit: ; preds = %5
  %11 = load ptr, ptr %0, align 8
  %12 = getelementptr inbounds nuw i8, ptr %11, i64 16
  %13 = load ptr, ptr %12, align 8
  %14 = tail call noundef i32 %13(ptr noundef nonnull align 8 dereferenceable(24) %0)
  %15 = icmp eq i32 %14, 6
  br i1 %15, label %_ZNK32pxrInternal_v0_24__pxrReserved__13UsdSchemaBase18IsAppliedAPISchemaEv.exit.thread, label %115

_ZNK32pxrInternal_v0_24__pxrReserved__13UsdSchemaBase18IsAppliedAPISchemaEv.exit.thread: ; preds = %5, %_ZNK32pxrInternal_v0_24__pxrReserved__13UsdSchemaBase18IsAppliedAPISchemaEv.exit
  %16 = load ptr, ptr %0, align 8
  %17 = getelementptr inbounds nuw i8, ptr %16, i64 16
  %18 = load ptr, ptr %17, align 8
  %19 = tail call noundef i32 %18(ptr noundef nonnull align 8 dereferenceable(24) %0)
  %20 = icmp eq i32 %19, 6
  br i1 %20, label %21, label %70

21:                                               ; preds = %_ZNK32pxrInternal_v0_24__pxrReserved__13UsdSchemaBase18IsAppliedAPISchemaEv.exit.thread
  %22 = getelementptr inbounds nuw i8, ptr %0, i64 24
  %23 = load ptr, ptr %22, align 8
  %24 = icmp eq ptr %23, null
  br i1 %24, label %_ZN32pxrInternal_v0_24__pxrReserved__7UsdPrimD2Ev.exit.thread, label %25

25:                                               ; preds = %21
  %26 = getelementptr inbounds nuw i8, ptr %0, i64 8
  %27 = getelementptr inbounds nuw i8, ptr %0, i64 16
  call void @_ZN32pxrInternal_v0_24__pxrReserved__9UsdObjectC2ERKNS_18Usd_PrimDataHandleERKNS_7SdfPathE(ptr noundef nonnull align 8 dereferenceable(32) %2, ptr noundef nonnull align 8 dereferenceable(8) %26, ptr noundef nonnull align 4 dereferenceable(8) %27)
  %28 = load ptr, ptr %0, align 8
  %29 = getelementptr inbounds nuw i8, ptr %28, i64 40
  %30 = load ptr, ptr %29, align 8
  %31 = invoke noundef nonnull align 8 dereferenceable(8) ptr %30(ptr noundef nonnull align 8 dereferenceable(32) %0)
          to label %32 unwind label %68

32:                                               ; preds = %25
  %33 = invoke noundef zeroext i1 @_ZNK32pxrInternal_v0_24__pxrReserved__7UsdPrim6HasAPIERKNS_6TfTypeERKNS_7TfTokenE(ptr noundef nonnull align 8 dereferenceable(32) %2, ptr noundef nonnull align 8 dereferenceable(8) %31, ptr noundef nonnull align 8 dereferenceable(8) %22)
          to label %34 unwind label %68

34:                                               ; preds = %32
  %35 = getelementptr inbounds nuw i8, ptr %2, i64 24
  %36 = load ptr, ptr %35, align 8
  %37 = ptrtoint ptr %36 to i64
  %38 = and i64 %37, 7
  %.not.i.i.i.i = icmp eq i64 %38, 0
  br i1 %.not.i.i.i.i, label %_ZN32pxrInternal_v0_24__pxrReserved__7TfTokenD2Ev.exit.i.i, label %39

39:                                               ; preds = %34
  %40 = and i64 %37, -8
  %41 = inttoptr i64 %40 to ptr
  %42 = atomicrmw sub ptr %41, i32 2 release, align 4
  br label %_ZN32pxrInternal_v0_24__pxrReserved__7TfTokenD2Ev.exit.i.i

_ZN32pxrInternal_v0_24__pxrReserved__7TfTokenD2Ev.exit.i.i: ; preds = %39, %34
  %43 = getelementptr inbounds nuw i8, ptr %2, i64 16
  %44 = load i32, ptr %43, align 8
  %.not.i.i1.i.i = icmp eq i32 %44, 0
  br i1 %.not.i.i1.i.i, label %_ZN32pxrInternal_v0_24__pxrReserved__7SdfPathD2Ev.exit.i.i, label %45

45:                                               ; preds = %_ZN32pxrInternal_v0_24__pxrReserved__7TfTokenD2Ev.exit.i.i
  %46 = and i32 %44, 255
  %47 = lshr i32 %44, 8
  %48 = zext nneg i32 %46 to i64
  %49 = getelementptr inbounds nuw [257 x ptr], ptr @_ZN32pxrInternal_v0_24__pxrReserved__8Sdf_PoolINS_15Sdf_PathPrimTagELj24ELj8ELj16384EE13_regionStartsE, i64 0, i64 %48
  %50 = load ptr, ptr %49, align 8
  %51 = mul nuw nsw i32 %47, 24
  %52 = zext nneg i32 %51 to i64
  %53 = getelementptr inbounds nuw i8, ptr %50, i64 %52
  %54 = getelementptr inbounds nuw i8, ptr %53, i64 8
  %55 = atomicrmw sub ptr %54, i32 1 seq_cst, align 4
  %56 = and i32 %55, 2147483647
  %57 = icmp eq i32 %56, 1
  br i1 %57, label %58, label %_ZN32pxrInternal_v0_24__pxrReserved__7SdfPathD2Ev.exit.i.i

58:                                               ; preds = %45
  invoke void @_ZNK32pxrInternal_v0_24__pxrReserved__12Sdf_PathNode8_DestroyEv(ptr noundef nonnull align 8 dereferenceable(16) %53)
          to label %_ZN32pxrInternal_v0_24__pxrReserved__7SdfPathD2Ev.exit.i.i unwind label %59

59:                                               ; preds = %58
  %60 = landingpad { ptr, i32 }
          catch ptr null
  %61 = extractvalue { ptr, i32 } %60, 0
  call void @__clang_call_terminate(ptr %61) #20
  unreachable

_ZN32pxrInternal_v0_24__pxrReserved__7SdfPathD2Ev.exit.i.i: ; preds = %58, %45, %_ZN32pxrInternal_v0_24__pxrReserved__7TfTokenD2Ev.exit.i.i
  %62 = getelementptr inbounds nuw i8, ptr %2, i64 8
  %63 = load ptr, ptr %62, align 8
  %.not.i.i.i.i.i = icmp eq ptr %63, null
  br i1 %.not.i.i.i.i.i, label %_ZN32pxrInternal_v0_24__pxrReserved__7UsdPrimD2Ev.exit, label %64

64:                                               ; preds = %_ZN32pxrInternal_v0_24__pxrReserved__7SdfPathD2Ev.exit.i.i
  %65 = getelementptr inbounds nuw i8, ptr %63, i64 48
  %66 = atomicrmw sub ptr %65, i64 1 release, align 8
  %.not1.i.i.i.i.i = icmp eq i64 %66, 1
  br i1 %.not1.i.i.i.i.i, label %67, label %_ZN32pxrInternal_v0_24__pxrReserved__7UsdPrimD2Ev.exit

67:                                               ; preds = %64
  call void @_ZN32pxrInternal_v0_24__pxrReserved__12Usd_PrimDataD1Ev(ptr noundef nonnull align 8 dereferenceable(64) %63) #19
  call void @_ZdlPvm(ptr noundef nonnull %63, i64 noundef 64) #21
  br i1 %33, label %115, label %_ZN32pxrInternal_v0_24__pxrReserved__7UsdPrimD2Ev.exit.thread

_ZN32pxrInternal_v0_24__pxrReserved__7UsdPrimD2Ev.exit: ; preds = %64, %_ZN32pxrInternal_v0_24__pxrReserved__7SdfPathD2Ev.exit.i.i
  br i1 %33, label %115, label %_ZN32pxrInternal_v0_24__pxrReserved__7UsdPrimD2Ev.exit.thread

68:                                               ; preds = %32, %25
  %69 = landingpad { ptr, i32 }
          cleanup
  br label %116

70:                                               ; preds = %_ZNK32pxrInternal_v0_24__pxrReserved__13UsdSchemaBase18IsAppliedAPISchemaEv.exit.thread
  %71 = getelementptr inbounds nuw i8, ptr %0, i64 8
  %72 = getelementptr inbounds nuw i8, ptr %0, i64 16
  call void @_ZN32pxrInternal_v0_24__pxrReserved__9UsdObjectC2ERKNS_18Usd_PrimDataHandleERKNS_7SdfPathE(ptr noundef nonnull align 8 dereferenceable(32) %3, ptr noundef nonnull align 8 dereferenceable(8) %71, ptr noundef nonnull align 4 dereferenceable(8) %72)
  %73 = load ptr, ptr %0, align 8
  %74 = getelementptr inbounds nuw i8, ptr %73, i64 40
  %75 = load ptr, ptr %74, align 8
  %76 = invoke noundef nonnull align 8 dereferenceable(8) ptr %75(ptr noundef nonnull align 8 dereferenceable(32) %0)
          to label %77 unwind label %113

77:                                               ; preds = %70
  %78 = invoke noundef zeroext i1 @_ZNK32pxrInternal_v0_24__pxrReserved__7UsdPrim6HasAPIERKNS_6TfTypeE(ptr noundef nonnull align 8 dereferenceable(32) %3, ptr noundef nonnull align 8 dereferenceable(8) %76)
          to label %79 unwind label %113

79:                                               ; preds = %77
  %80 = getelementptr inbounds nuw i8, ptr %3, i64 24
  %81 = load ptr, ptr %80, align 8
  %82 = ptrtoint ptr %81 to i64
  %83 = and i64 %82, 7
  %.not.i.i.i.i9 = icmp eq i64 %83, 0
  br i1 %.not.i.i.i.i9, label %_ZN32pxrInternal_v0_24__pxrReserved__7TfTokenD2Ev.exit.i.i10, label %84

84:                                               ; preds = %79
  %85 = and i64 %82, -8
  %86 = inttoptr i64 %85 to ptr
  %87 = atomicrmw sub ptr %86, i32 2 release, align 4
  br label %_ZN32pxrInternal_v0_24__pxrReserved__7TfTokenD2Ev.exit.i.i10

_ZN32pxrInternal_v0_24__pxrReserved__7TfTokenD2Ev.exit.i.i10: ; preds = %84, %79
  %88 = getelementptr inbounds nuw i8, ptr %3, i64 16
  %89 = load i32, ptr %88, align 8
  %.not.i.i1.i.i11 = icmp eq i32 %89, 0
  br i1 %.not.i.i1.i.i11, label %_ZN32pxrInternal_v0_24__pxrReserved__7SdfPathD2Ev.exit.i.i12, label %90

90:                                               ; preds = %_ZN32pxrInternal_v0_24__pxrReserved__7TfTokenD2Ev.exit.i.i10
  %91 = and i32 %89, 255
  %92 = lshr i32 %89, 8
  %93 = zext nneg i32 %91 to i64
  %94 = getelementptr inbounds nuw [257 x ptr], ptr @_ZN32pxrInternal_v0_24__pxrReserved__8Sdf_PoolINS_15Sdf_PathPrimTagELj24ELj8ELj16384EE13_regionStartsE, i64 0, i64 %93
  %95 = load ptr, ptr %94, align 8
  %96 = mul nuw nsw i32 %92, 24
  %97 = zext nneg i32 %96 to i64
  %98 = getelementptr inbounds nuw i8, ptr %95, i64 %97
  %99 = getelementptr inbounds nuw i8, ptr %98, i64 8
  %100 = atomicrmw sub ptr %99, i32 1 seq_cst, align 4
  %101 = and i32 %100, 2147483647
  %102 = icmp eq i32 %101, 1
  br i1 %102, label %103, label %_ZN32pxrInternal_v0_24__pxrReserved__7SdfPathD2Ev.exit.i.i12

103:                                              ; preds = %90
  invoke void @_ZNK32pxrInternal_v0_24__pxrReserved__12Sdf_PathNode8_DestroyEv(ptr noundef nonnull align 8 dereferenceable(16) %98)
          to label %_ZN32pxrInternal_v0_24__pxrReserved__7SdfPathD2Ev.exit.i.i12 unwind label %104

104:                                              ; preds = %103
  %105 = landingpad { ptr, i32 }
          catch ptr null
  %106 = extractvalue { ptr, i32 } %105, 0
  call void @__clang_call_terminate(ptr %106) #20
  unreachable

_ZN32pxrInternal_v0_24__pxrReserved__7SdfPathD2Ev.exit.i.i12: ; preds = %103, %90, %_ZN32pxrInternal_v0_24__pxrReserved__7TfTokenD2Ev.exit.i.i10
  %107 = getelementptr inbounds nuw i8, ptr %3, i64 8
  %108 = load ptr, ptr %107, align 8
  %.not.i.i.i.i.i13 = icmp eq ptr %108, null
  br i1 %.not.i.i.i.i.i13, label %_ZN32pxrInternal_v0_24__pxrReserved__7UsdPrimD2Ev.exit15, label %109

109:                                              ; preds = %_ZN32pxrInternal_v0_24__pxrReserved__7SdfPathD2Ev.exit.i.i12
  %110 = getelementptr inbounds nuw i8, ptr %108, i64 48
  %111 = atomicrmw sub ptr %110, i64 1 release, align 8
  %.not1.i.i.i.i.i14 = icmp eq i64 %111, 1
  br i1 %.not1.i.i.i.i.i14, label %112, label %_ZN32pxrInternal_v0_24__pxrReserved__7UsdPrimD2Ev.exit15

112:                                              ; preds = %109
  call void @_ZN32pxrInternal_v0_24__pxrReserved__12Usd_PrimDataD1Ev(ptr noundef nonnull align 8 dereferenceable(64) %108) #19
  call void @_ZdlPvm(ptr noundef nonnull %108, i64 noundef 64) #21
  br label %_ZN32pxrInternal_v0_24__pxrReserved__7UsdPrimD2Ev.exit15

_ZN32pxrInternal_v0_24__pxrReserved__7UsdPrimD2Ev.exit15: ; preds = %_ZN32pxrInternal_v0_24__pxrReserved__7SdfPathD2Ev.exit.i.i12, %109, %112
  br i1 %78, label %115, label %_ZN32pxrInternal_v0_24__pxrReserved__7UsdPrimD2Ev.exit.thread

113:                                              ; preds = %77, %70
  %114 = landingpad { ptr, i32 }
          cleanup
  br label %116

115:                                              ; preds = %67, %_ZN32pxrInternal_v0_24__pxrReserved__7UsdPrimD2Ev.exit, %_ZN32pxrInternal_v0_24__pxrReserved__7UsdPrimD2Ev.exit15, %_ZNK32pxrInternal_v0_24__pxrReserved__13UsdSchemaBase18IsAppliedAPISchemaEv.exit
  br label %_ZN32pxrInternal_v0_24__pxrReserved__7UsdPrimD2Ev.exit.thread

_ZN32pxrInternal_v0_24__pxrReserved__7UsdPrimD2Ev.exit.thread: ; preds = %21, %67, %_ZN32pxrInternal_v0_24__pxrReserved__7UsdPrimD2Ev.exit15, %_ZN32pxrInternal_v0_24__pxrReserved__7UsdPrimD2Ev.exit, %1, %115
  %.07 = phi i1 [ true, %115 ], [ false, %1 ], [ false, %_ZN32pxrInternal_v0_24__pxrReserved__7UsdPrimD2Ev.exit ], [ false, %_ZN32pxrInternal_v0_24__pxrReserved__7UsdPrimD2Ev.exit15 ], [ false, %67 ], [ false, %21 ]
  ret i1 %.07

116:                                              ; preds = %68, %113
  %.sink = phi ptr [ %2, %68 ], [ %3, %113 ]
  %.pn = phi { ptr, i32 } [ %69, %68 ], [ %114, %113 ]
  call void @_ZN32pxrInternal_v0_24__pxrReserved__7UsdPrimD2Ev(ptr noundef nonnull align 8 dereferenceable(32) %.sink) #19
  resume { ptr, i32 } %.pn
}